target datalayout = "e-m:e-p270:32:32-p271:32:32-p272:64:64-i64:64-i128:128-f80:128-n8:16:32:64-S128"
target triple = "x86_64-pc-linux-gnu"

; Function Attrs: nounwind uwtable
define internal i32 @longCommandWArg(ptr noundef %0, ptr noundef %1) #0 {
  %3 = alloca ptr, align 8
  %4 = alloca ptr, align 8
  %5 = alloca i64, align 8
  %6 = alloca i32, align 4
  store ptr %0, ptr %3, align 8, !tbaa !8
  store ptr %1, ptr %4, align 8, !tbaa !11
  call void @llvm.lifetime.start.p0(i64 8, ptr %5) #12
  %7 = load ptr, ptr %4, align 8, !tbaa !11
  %8 = call i64 @strlen(ptr noundef %7) #14
  store i64 %8, ptr %5, align 8, !tbaa !15
  call void @llvm.lifetime.start.p0(i64 4, ptr %6) #12
  %9 = load ptr, ptr %3, align 8, !tbaa !8
  %10 = load ptr, ptr %9, align 8, !tbaa !11
  %11 = load ptr, ptr %4, align 8, !tbaa !11
  %12 = load i64, ptr %5, align 8, !tbaa !15
  %13 = call i32 @strncmp(ptr noundef %10, ptr noundef %11, i64 noundef %12) #14
  %14 = icmp ne i32 %13, 0
  %15 = xor i1 %14, true
  %16 = zext i1 %15 to i32
  store i32 %16, ptr %6, align 4, !tbaa !4
  %17 = load i32, ptr %6, align 4, !tbaa !4
  %18 = icmp ne i32 %17, 0
  br i1 %18, label %19, label %24

19:                                               ; preds = %2
  %20 = load i64, ptr %5, align 8, !tbaa !15
  %21 = load ptr, ptr %3, align 8, !tbaa !8
  %22 = load ptr, ptr %21, align 8, !tbaa !11
  %23 = getelementptr inbounds nuw i8, ptr %22, i64 %20
  store ptr %23, ptr %21, align 8, !tbaa !11
  br label %24

24:                                               ; preds = %19, %2
  %25 = load i32, ptr %6, align 4, !tbaa !4
  call void @llvm.lifetime.end.p0(i64 4, ptr %6) #12
  call void @llvm.lifetime.end.p0(i64 8, ptr %5) #12
  ret i32 %25
}