; Function Attrs: mustprogress nofree nounwind willreturn memory(read, argmem: readwrite, inaccessiblemem: none) uwtable
define internal fastcc range(i32 0, 2) i32 @longCommandWArg(ptr noundef nonnull captures(none) %0, ptr noundef readonly captures(none) %1) unnamed_addr #8 {
  %3 = tail call i64 @strlen(ptr noundef nonnull dereferenceable(1) %1) #25
  %4 = load ptr, ptr %0, align 8, !tbaa !14
  %5 = tail call i32 @strncmp(ptr noundef %4, ptr noundef nonnull %1, i64 noundef %3) #25
  %.not = icmp eq i32 %5, 0
  br i1 %.not, label %6, label %8

6:                                                ; preds = %2
  %7 = getelementptr inbounds nuw i8, ptr %4, i64 %3
  store ptr %7, ptr %0, align 8, !tbaa !14
  br label %8

8:                                                ; preds = %6, %2
  %9 = zext i1 %.not to i32
  ret i32 %9
}